target datalayout = "e-m:e-p270:32:32-p271:32:32-p272:64:64-i64:64-i128:128-f80:128-n8:16:32:64-S128"
target triple = "x86_64-pc-linux-gnu"

%struct.HWContextType = type { i32, ptr, ptr, i64, i64, i64, ptr, ptr, ptr, ptr, ptr, ptr, ptr, ptr, ptr, ptr, ptr, ptr, ptr, ptr, ptr }
%struct.FFHWDeviceContext = type { %struct.AVHWDeviceContext, ptr, ptr }
%struct.AVHWDeviceContext = type { ptr, i32, ptr, ptr, ptr }
%struct.AVBufferRef = type { ptr, ptr, i64 }

; Function Attrs: nounwind uwtable
define i32 @av_hwdevice_ctx_init(ptr noundef %0) #0 {
  %2 = alloca ptr, align 8
  %3 = alloca ptr, align 8
  %4 = alloca ptr, align 8
  %5 = alloca i32, align 4
  store ptr %0, ptr %2, align 8, !tbaa !28
  call void @llvm.lifetime.start.p0(i64 8, ptr %3) #5
  %6 = load ptr, ptr %2, align 8, !tbaa !28
  %7 = getelementptr inbounds nuw %struct.AVBufferRef, ptr %6, i32 0, i32 1
  %8 = load ptr, ptr %7, align 8, !tbaa !37
  store ptr %8, ptr %3, align 8, !tbaa !20
  call void @llvm.lifetime.start.p0(i64 8, ptr %4) #5
  %9 = load ptr, ptr %3, align 8, !tbaa !20
  %10 = getelementptr inbounds nuw %struct.FFHWDeviceContext, ptr %9, i32 0, i32 0
  store ptr %10, ptr %4, align 8, !tbaa !22
  call void @llvm.lifetime.start.p0(i64 4, ptr %5) #5
  store i32 0, ptr %5, align 4, !tbaa !9
  %11 = load ptr, ptr %3, align 8, !tbaa !20
  %12 = getelementptr inbounds nuw %struct.FFHWDeviceContext, ptr %11, i32 0, i32 1
  %13 = load ptr, ptr %12, align 8, !tbaa !32
  %14 = getelementptr inbounds nuw %struct.HWContextType, ptr %13, i32 0, i32 8
  %15 = load ptr, ptr %14, align 8, !tbaa !40
  %16 = icmp ne ptr %15, null
  br i1 %16, label %17, label %25

17:                                               ; preds = %1
  %18 = load ptr, ptr %3, align 8, !tbaa !20
  %19 = getelementptr inbounds nuw %struct.FFHWDeviceContext, ptr %18, i32 0, i32 1
  %20 = load ptr, ptr %19, align 8, !tbaa !32
  %21 = getelementptr inbounds nuw %struct.HWContextType, ptr %20, i32 0, i32 8
  %22 = load ptr, ptr %21, align 8, !tbaa !40
  %23 = load ptr, ptr %4, align 8, !tbaa !22
  %24 = call i32 %22(ptr noundef %23)
  store i32 %24, ptr %5, align 4, !tbaa !9
  br label %25

25:                                               ; preds = %17, %1
  %26 = load i32, ptr %5, align 4, !tbaa !9
  call void @llvm.lifetime.end.p0(i64 4, ptr %5) #5
  call void @llvm.lifetime.end.p0(i64 8, ptr %4) #5
  call void @llvm.lifetime.end.p0(i64 8, ptr %3) #5
  ret i32 %26
}