; Function Attrs: nounwind uwtable
define i32 @av_hwdevice_ctx_init(ptr noundef readonly captures(none) %0) local_unnamed_addr #5 {
  %2 = getelementptr inbounds nuw i8, ptr %0, i64 8
  %3 = load ptr, ptr %2, align 8, !tbaa !32
  %4 = getelementptr inbounds nuw i8, ptr %3, i64 40
  %5 = load ptr, ptr %4, align 8, !tbaa !27
  %6 = getelementptr inbounds nuw i8, ptr %5, i64 64
  %7 = load ptr, ptr %6, align 8, !tbaa !35
  %.not = icmp eq ptr %7, null
  br i1 %.not, label %10, label %8

8:                                                ; preds = %1
  %9 = tail call i32 %7(ptr noundef nonnull %3) #11
  br label %10

10:                                               ; preds = %8, %1
  %.0 = phi i32 [ %9, %8 ], [ 0, %1 ]
  ret i32 %.0
}